target datalayout = "e-m:e-p270:32:32-p271:32:32-p272:64:64-i64:64-i128:128-f80:128-n8:16:32:64-S128"
target triple = "x86_64-unknown-linux-gnu"

%"class.QuantLib::Date" = type { i64 }
%"class.boost::detail::shared_count" = type { ptr }
%"class.QuantLib::Handle" = type { %"class.boost::shared_ptr.18" }
%"class.boost::shared_ptr.18" = type { ptr, %"class.boost::detail::shared_count" }
%"class.QuantLib::RelinkableHandle" = type { %"class.QuantLib::Handle" }

; Function Attrs: mustprogress uwtable
define void @_ZN8QuantLib13FraRateHelperC2EdjjjRKNS_8CalendarENS_21BusinessDayConventionEbRKNS_10DayCounterENS_6Pillar6ChoiceENS_4DateEb(ptr noundef nonnull align 8 dereferenceable(272) %this, double noundef %rate, i32 noundef %monthsToStart, i32 noundef %monthsToEnd, i32 noundef %fixingDays, ptr noundef nonnull align 8 dereferenceable(16) %calendar, i32 noundef %convention, i1 noundef zeroext %endOfMonth, ptr noundef nonnull align 8 dereferenceable(16) %dayCounter, i32 noundef %pillarChoice, i64 %customPillarDate.coerce, i1 noundef zeroext %useIndexedCoupon) unnamed_addr #2 align 2 personality ptr @__gxx_personality_v0 {
entry:
  %customPillarDate = alloca %"class.QuantLib::Date", align 8
  %this.addr = alloca ptr, align 8
  %rate.addr = alloca double, align 8
  %monthsToStart.addr = alloca i32, align 4
  %monthsToEnd.addr = alloca i32, align 4
  %fixingDays.addr = alloca i32, align 4
  %calendar.addr = alloca ptr, align 8
  %convention.addr = alloca i32, align 4
  %endOfMonth.addr = alloca i8, align 1
  %dayCounter.addr = alloca ptr, align 8
  %pillarChoice.addr = alloca i32, align 4
  %useIndexedCoupon.addr = alloca i8, align 1
  %ref.tmp = alloca %"class.QuantLib::RelinkableHandle", align 8
  %agg.tmp = alloca %"class.QuantLib::Date", align 8
  %exn.slot = alloca ptr, align 8
  %ehselector.slot = alloca i32, align 4
  %coerce.dive = getelementptr inbounds nuw %"class.QuantLib::Date", ptr %customPillarDate, i32 0, i32 0
  store i64 %customPillarDate.coerce, ptr %coerce.dive, align 8
  store ptr %this, ptr %this.addr, align 8, !tbaa !3
  store double %rate, ptr %rate.addr, align 8, !tbaa !55
  store i32 %monthsToStart, ptr %monthsToStart.addr, align 4, !tbaa !18
  store i32 %monthsToEnd, ptr %monthsToEnd.addr, align 4, !tbaa !18
  store i32 %fixingDays, ptr %fixingDays.addr, align 4, !tbaa !18
  store ptr %calendar, ptr %calendar.addr, align 8, !tbaa !3
  store i32 %convention, ptr %convention.addr, align 4, !tbaa !20
  %storedv = zext i1 %endOfMonth to i8
  store i8 %storedv, ptr %endOfMonth.addr, align 1, !tbaa !22
  store ptr %dayCounter, ptr %dayCounter.addr, align 8, !tbaa !3
  store i32 %pillarChoice, ptr %pillarChoice.addr, align 4, !tbaa !83
  %storedv1 = zext i1 %useIndexedCoupon to i8
  store i8 %storedv1, ptr %useIndexedCoupon.addr, align 1, !tbaa !22
  %this2 = load ptr, ptr %this.addr, align 8
  call void @llvm.lifetime.start.p0(i64 16, ptr %ref.tmp) #17
  %0 = load double, ptr %rate.addr, align 8, !tbaa !55
  call void @_ZN8QuantLib15makeQuoteHandleEd(ptr dead_on_unwind writable sret(%"class.QuantLib::RelinkableHandle") align 8 %ref.tmp, double noundef %0)
  %1 = load i32, ptr %monthsToStart.addr, align 4, !tbaa !18
  %2 = load i32, ptr %monthsToEnd.addr, align 4, !tbaa !18
  %3 = load i32, ptr %fixingDays.addr, align 4, !tbaa !18
  %4 = load ptr, ptr %calendar.addr, align 8, !tbaa !3
  %5 = load i32, ptr %convention.addr, align 4, !tbaa !20
  %6 = load i8, ptr %endOfMonth.addr, align 1, !tbaa !22, !range !29, !noundef !30
  %loadedv = trunc i8 %6 to i1
  %7 = load ptr, ptr %dayCounter.addr, align 8, !tbaa !3
  %8 = load i32, ptr %pillarChoice.addr, align 4, !tbaa !83
  call void @llvm.memcpy.p0.p0.i64(ptr align 8 %agg.tmp, ptr align 8 %customPillarDate, i64 8, i1 false), !tbaa.struct !26
  %9 = load i8, ptr %useIndexedCoupon.addr, align 1, !tbaa !22, !range !29, !noundef !30
  %loadedv3 = trunc i8 %9 to i1
  %coerce.dive4 = getelementptr inbounds nuw %"class.QuantLib::Date", ptr %agg.tmp, i32 0, i32 0
  %10 = load i64, ptr %coerce.dive4, align 8
  invoke void @_ZN8QuantLib13FraRateHelperC2ERKNS_6HandleINS_5QuoteEEEjjjRKNS_8CalendarENS_21BusinessDayConventionEbRKNS_10DayCounterENS_6Pillar6ChoiceENS_4DateEb(ptr noundef nonnull align 8 dereferenceable(272) %this2, ptr noundef nonnull align 8 dereferenceable(16) %ref.tmp, i32 noundef %1, i32 noundef %2, i32 noundef %3, ptr noundef nonnull align 8 dereferenceable(16) %4, i32 noundef %5, i1 noundef zeroext %loadedv, ptr noundef nonnull align 8 dereferenceable(16) %7, i32 noundef %8, i64 %10, i1 noundef zeroext %loadedv3)
          to label %invoke.cont unwind label %lpad

invoke.cont:                                      ; preds = %entry
  call void @_ZN8QuantLib6HandleINS_5QuoteEED2Ev(ptr noundef nonnull align 8 dereferenceable(16) %ref.tmp) #17
  call void @llvm.lifetime.end.p0(i64 16, ptr %ref.tmp) #17
  ret void

lpad:                                             ; preds = %entry
  %11 = landingpad { ptr, i32 }
          cleanup
  %12 = extractvalue { ptr, i32 } %11, 0
  store ptr %12, ptr %exn.slot, align 8
  %13 = extractvalue { ptr, i32 } %11, 1
  store i32 %13, ptr %ehselector.slot, align 4
  call void @_ZN8QuantLib6HandleINS_5QuoteEED2Ev(ptr noundef nonnull align 8 dereferenceable(16) %ref.tmp) #17
  call void @llvm.lifetime.end.p0(i64 16, ptr %ref.tmp) #17
  br label %eh.resume

eh.resume:                                        ; preds = %lpad
  %exn = load ptr, ptr %exn.slot, align 8
  %sel = load i32, ptr %ehselector.slot, align 4
  %lpad.val = insertvalue { ptr, i32 } poison, ptr %exn, 0
  %lpad.val5 = insertvalue { ptr, i32 } %lpad.val, i32 %sel, 1
  resume { ptr, i32 } %lpad.val5
}