; Function Attrs: mustprogress uwtable
define void @_ZN8QuantLib13FraRateHelperC2EdjjjRKNS_8CalendarENS_21BusinessDayConventionEbRKNS_10DayCounterENS_6Pillar6ChoiceENS_4DateEb(ptr noundef nonnull align 8 dereferenceable(272) %this, double noundef %rate, i32 noundef %monthsToStart, i32 noundef %monthsToEnd, i32 noundef %fixingDays, ptr noundef nonnull align 8 dereferenceable(16) %calendar, i32 noundef %convention, i1 noundef zeroext %endOfMonth, ptr noundef nonnull align 8 dereferenceable(16) %dayCounter, i32 noundef %pillarChoice, i64 %customPillarDate.coerce, i1 noundef zeroext %useIndexedCoupon) unnamed_addr #7 align 2 personality ptr @__gxx_personality_v0 {
entry:
  %ref.tmp = alloca %"class.QuantLib::RelinkableHandle", align 8
  call void @llvm.lifetime.start.p0(i64 16, ptr nonnull %ref.tmp) #26
  call void @_ZN8QuantLib15makeQuoteHandleEd(ptr dead_on_unwind nonnull writable sret(%"class.QuantLib::RelinkableHandle") align 8 %ref.tmp, double noundef %rate)
  invoke void @_ZN8QuantLib13FraRateHelperC2ERKNS_6HandleINS_5QuoteEEEjjjRKNS_8CalendarENS_21BusinessDayConventionEbRKNS_10DayCounterENS_6Pillar6ChoiceENS_4DateEb(ptr noundef nonnull align 8 dereferenceable(272) %this, ptr noundef nonnull align 8 dereferenceable(16) %ref.tmp, i32 noundef %monthsToStart, i32 noundef %monthsToEnd, i32 noundef %fixingDays, ptr noundef nonnull align 8 dereferenceable(16) %calendar, i32 noundef %convention, i1 noundef zeroext %endOfMonth, ptr noundef nonnull align 8 dereferenceable(16) %dayCounter, i32 noundef %pillarChoice, i64 %customPillarDate.coerce, i1 noundef zeroext %useIndexedCoupon)
          to label %invoke.cont unwind label %lpad

invoke.cont:                                      ; preds = %entry
  %pn.i.i = getelementptr inbounds nuw i8, ptr %ref.tmp, i64 8
  %0 = load ptr, ptr %pn.i.i, align 8, !tbaa !37
  %cmp.not.i.i.i = icmp eq ptr %0, null
  br i1 %cmp.not.i.i.i, label %_ZN8QuantLib6HandleINS_5QuoteEED2Ev.exit, label %if.then.i.i.i

if.then.i.i.i:                                    ; preds = %invoke.cont
  %use_count_.i.i.i.i = getelementptr inbounds nuw i8, ptr %0, i64 8
  %1 = atomicrmw sub ptr %use_count_.i.i.i.i, i32 1 acq_rel, align 4
  %cmp.i.i.i.i = icmp eq i32 %1, 1
  br i1 %cmp.i.i.i.i, label %if.then.i.i.i.i, label %_ZN8QuantLib6HandleINS_5QuoteEED2Ev.exit

if.then.i.i.i.i:                                  ; preds = %if.then.i.i.i
  %vtable.i.i.i.i = load ptr, ptr %0, align 8, !tbaa !35
  %vfn.i.i.i.i = getelementptr inbounds i8, ptr %vtable.i.i.i.i, i64 16
  %2 = load ptr, ptr %vfn.i.i.i.i, align 8
  invoke void %2(ptr noundef nonnull align 8 dereferenceable(16) %0)
          to label %.noexc.i.i.i unwind label %terminate.lpad.i.i.i

.noexc.i.i.i:                                     ; preds = %if.then.i.i.i.i
  %weak_count_.i.i.i.i.i = getelementptr inbounds nuw i8, ptr %0, i64 12
  %3 = atomicrmw sub ptr %weak_count_.i.i.i.i.i, i32 1 acq_rel, align 4
  %cmp.i.i.i.i.i = icmp eq i32 %3, 1
  br i1 %cmp.i.i.i.i.i, label %if.then.i.i.i.i.i, label %_ZN8QuantLib6HandleINS_5QuoteEED2Ev.exit

if.then.i.i.i.i.i:                                ; preds = %.noexc.i.i.i
  %vtable.i.i.i.i.i = load ptr, ptr %0, align 8, !tbaa !35
  %vfn.i.i.i.i.i = getelementptr inbounds i8, ptr %vtable.i.i.i.i.i, i64 24
  %4 = load ptr, ptr %vfn.i.i.i.i.i, align 8
  invoke void %4(ptr noundef nonnull align 8 dereferenceable(16) %0)
          to label %_ZN8QuantLib6HandleINS_5QuoteEED2Ev.exit unwind label %terminate.lpad.i.i.i

terminate.lpad.i.i.i:                             ; preds = %if.then.i.i.i.i.i, %if.then.i.i.i.i
  %5 = landingpad { ptr, i32 }
          catch ptr null
  %6 = extractvalue { ptr, i32 } %5, 0
  call void @__clang_call_terminate(ptr %6) #27
  unreachable

_ZN8QuantLib6HandleINS_5QuoteEED2Ev.exit:         ; preds = %invoke.cont, %if.then.i.i.i, %.noexc.i.i.i, %if.then.i.i.i.i.i
  call void @llvm.lifetime.end.p0(i64 16, ptr nonnull %ref.tmp) #26
  ret void

lpad:                                             ; preds = %entry
  %7 = landingpad { ptr, i32 }
          cleanup
  call void @_ZN8QuantLib6HandleINS_5QuoteEED2Ev(ptr noundef nonnull align 8 dereferenceable(16) %ref.tmp) #26
  call void @llvm.lifetime.end.p0(i64 16, ptr nonnull %ref.tmp) #26
  resume { ptr, i32 } %7
}